target datalayout = "e-m:e-p270:32:32-p271:32:32-p272:64:64-i64:64-i128:128-f80:128-n8:16:32:64-S128"
target triple = "x86_64-pc-linux-gnu"

%struct._e_addr_resolve = type { i8, i8, i8, i8, i8, i8, i8, i8, i8 }
%struct.timeval = type { i64, i64 }
%struct.fd_set = type { [16 x i64] }
%struct._async_hostent = type { i32, i32, ptr }

@gbl_resolv_flags = global %struct._e_addr_resolve { i8 1, i8 0, i8 0, i8 1, i8 0, i8 1, i8 0, i8 0, i8 1 }, align 1
@name_resolve_concurrency = internal global i32 500, align 4
@async_dns_initialized = internal global i8 0, align 1
@stderr = external global ptr, align 8
@.str.53 = private unnamed_addr constant [47 x i8] c"Warning: call to select() failed, error is %s\0A\00", align 1
@__const.get_host_ipaddr.tv = private unnamed_addr constant %struct.timeval { i64 0, i64 250000 }, align 8
@ghbn_chan = internal global ptr null, align 8

; Function Attrs: null_pointer_is_valid sspstrong uwtable
define zeroext i1 @get_host_ipaddr(ptr noundef %0, ptr noundef %1) #3 {
  %3 = alloca i1, align 1
  %4 = alloca ptr, align 8
  %5 = alloca ptr, align 8
  %6 = alloca %struct.timeval, align 8
  %7 = alloca ptr, align 8
  %8 = alloca i32, align 4
  %9 = alloca %struct.fd_set, align 8
  %10 = alloca %struct.fd_set, align 8
  %11 = alloca %struct._async_hostent, align 8
  %12 = alloca i32, align 4
  %13 = alloca i32, align 4
  %14 = alloca ptr, align 8
  %15 = alloca i32, align 4
  %16 = alloca ptr, align 8
  store ptr %0, ptr %4, align 8
  store ptr %1, ptr %5, align 8
  call void @llvm.lifetime.start.p0(i64 16, ptr %6) #16
  call void @llvm.memcpy.p0.p0.i64(ptr align 8 %6, ptr align 8 @__const.get_host_ipaddr.tv, i64 16, i1 false)
  call void @llvm.lifetime.start.p0(i64 8, ptr %7) #16
  call void @llvm.lifetime.start.p0(i64 4, ptr %8) #16
  call void @llvm.lifetime.start.p0(i64 128, ptr %9) #16
  call void @llvm.lifetime.start.p0(i64 128, ptr %10) #16
  call void @llvm.lifetime.start.p0(i64 16, ptr %11) #16
  %17 = load ptr, ptr %4, align 8
  %18 = load ptr, ptr %5, align 8
  %19 = call zeroext i1 @ws_inet_pton4(ptr noundef %17, ptr noundef %18)
  br i1 %19, label %108, label %20

20:                                               ; preds = %2
  %21 = load i8, ptr getelementptr inbounds nuw (%struct._e_addr_resolve, ptr @gbl_resolv_flags, i32 0, i32 1), align 1, !range !8, !noundef !9
  %22 = trunc i8 %21 to i1
  br i1 %22, label %23, label %26

23:                                               ; preds = %20
  %24 = load i8, ptr getelementptr inbounds nuw (%struct._e_addr_resolve, ptr @gbl_resolv_flags, i32 0, i32 5), align 1, !range !8, !noundef !9
  %25 = trunc i8 %24 to i1
  br i1 %25, label %27, label %26

26:                                               ; preds = %23, %20
  store i1 false, ptr %3, align 1
  store i32 1, ptr %12, align 4
  br label %109

27:                                               ; preds = %23
  %28 = load i8, ptr @async_dns_initialized, align 1, !range !8, !noundef !9
  %29 = trunc i8 %28 to i1
  br i1 %29, label %30, label %33

30:                                               ; preds = %27
  %31 = load i32, ptr @name_resolve_concurrency, align 4
  %32 = icmp ult i32 %31, 1
  br i1 %32, label %33, label %34

33:                                               ; preds = %30, %27
  store i1 false, ptr %3, align 1
  store i32 1, ptr %12, align 4
  br label %109

34:                                               ; preds = %30
  %35 = getelementptr inbounds nuw %struct._async_hostent, ptr %11, i32 0, i32 0
  store i32 4, ptr %35, align 8
  %36 = getelementptr inbounds nuw %struct._async_hostent, ptr %11, i32 0, i32 1
  store i32 0, ptr %36, align 4
  %37 = load ptr, ptr %5, align 8
  %38 = getelementptr inbounds nuw %struct._async_hostent, ptr %11, i32 0, i32 2
  store ptr %37, ptr %38, align 8
  %39 = load ptr, ptr @ghbn_chan, align 8
  %40 = load ptr, ptr %4, align 8
  call void @ares_gethostbyname(ptr noundef %39, ptr noundef %40, i32 noundef 2, ptr noundef @c_ares_ghi_cb, ptr noundef %11)
  br label %41

41:                                               ; preds = %34
  call void @llvm.lifetime.start.p0(i64 4, ptr %13) #16
  call void @llvm.lifetime.start.p0(i64 8, ptr %14) #16
  store ptr %9, ptr %14, align 8
  store i32 0, ptr %13, align 4
  br label %42

42:                                               ; preds = %52, %41
  %43 = load i32, ptr %13, align 4
  %44 = zext i32 %43 to i64
  %45 = icmp ult i64 %44, 16
  br i1 %45, label %46, label %55

46:                                               ; preds = %42
  %47 = load ptr, ptr %14, align 8
  %48 = getelementptr inbounds nuw %struct.fd_set, ptr %47, i32 0, i32 0
  %49 = load i32, ptr %13, align 4
  %50 = zext i32 %49 to i64
  %51 = getelementptr [16 x i64], ptr %48, i64 0, i64 %50
  store i64 0, ptr %51, align 8
  br label %52

52:                                               ; preds = %46
  %53 = load i32, ptr %13, align 4
  %54 = add i32 %53, 1
  store i32 %54, ptr %13, align 4
  br label %42, !llvm.loop !22

55:                                               ; preds = %42
  call void @llvm.lifetime.end.p0(i64 8, ptr %14) #16
  call void @llvm.lifetime.end.p0(i64 4, ptr %13) #16
  br label %56

56:                                               ; preds = %55
  br label %57

57:                                               ; preds = %56
  br label %58

58:                                               ; preds = %57
  call void @llvm.lifetime.start.p0(i64 4, ptr %15) #16
  call void @llvm.lifetime.start.p0(i64 8, ptr %16) #16
  store ptr %10, ptr %16, align 8
  store i32 0, ptr %15, align 4
  br label %59

59:                                               ; preds = %69, %58
  %60 = load i32, ptr %15, align 4
  %61 = zext i32 %60 to i64
  %62 = icmp ult i64 %61, 16
  br i1 %62, label %63, label %72

63:                                               ; preds = %59
  %64 = load ptr, ptr %16, align 8
  %65 = getelementptr inbounds nuw %struct.fd_set, ptr %64, i32 0, i32 0
  %66 = load i32, ptr %15, align 4
  %67 = zext i32 %66 to i64
  %68 = getelementptr [16 x i64], ptr %65, i64 0, i64 %67
  store i64 0, ptr %68, align 8
  br label %69

69:                                               ; preds = %63
  %70 = load i32, ptr %15, align 4
  %71 = add i32 %70, 1
  store i32 %71, ptr %15, align 4
  br label %59, !llvm.loop !23

72:                                               ; preds = %59
  call void @llvm.lifetime.end.p0(i64 8, ptr %16) #16
  call void @llvm.lifetime.end.p0(i64 4, ptr %15) #16
  br label %73

73:                                               ; preds = %72
  br label %74

74:                                               ; preds = %73
  %75 = load ptr, ptr @ghbn_chan, align 8
  %76 = call i32 @ares_fds(ptr noundef %75, ptr noundef %9, ptr noundef %10)
  store i32 %76, ptr %8, align 4
  %77 = load i32, ptr %8, align 4
  %78 = icmp sgt i32 %77, 0
  br i1 %78, label %79, label %99

79:                                               ; preds = %74
  %80 = load ptr, ptr @ghbn_chan, align 8
  %81 = call ptr @ares_timeout(ptr noundef %80, ptr noundef %6, ptr noundef %6)
  store ptr %81, ptr %7, align 8
  %82 = load i32, ptr %8, align 4
  %83 = load ptr, ptr %7, align 8
  %84 = call i32 @select(i32 noundef %82, ptr noundef %9, ptr noundef %10, ptr noundef null, ptr noundef %83)
  %85 = icmp eq i32 %84, -1
  br i1 %85, label %86, label %97

86:                                               ; preds = %79
  %87 = call ptr @__errno_location() #18
  %88 = load i32, ptr %87, align 4
  %89 = icmp ne i32 %88, 4
  br i1 %89, label %90, label %96

90:                                               ; preds = %86
  %91 = load ptr, ptr @stderr, align 8
  %92 = call ptr @__errno_location() #18
  %93 = load i32, ptr %92, align 4
  %94 = call ptr @g_strerror(i32 noundef %93) #18
  %95 = call i32 (ptr, i32, ptr, ...) @__fprintf_chk(ptr noundef %91, i32 noundef 2, ptr noundef @.str.53, ptr noundef %94)
  br label %96

96:                                               ; preds = %90, %86
  store i1 false, ptr %3, align 1
  store i32 1, ptr %12, align 4
  br label %109

97:                                               ; preds = %79
  %98 = load ptr, ptr @ghbn_chan, align 8
  call void @ares_process(ptr noundef %98, ptr noundef %9, ptr noundef %10)
  br label %99

99:                                               ; preds = %97, %74
  %100 = load ptr, ptr @ghbn_chan, align 8
  call void @ares_cancel(ptr noundef %100)
  %101 = getelementptr inbounds nuw %struct._async_hostent, ptr %11, i32 0, i32 0
  %102 = load i32, ptr %101, align 8
  %103 = getelementptr inbounds nuw %struct._async_hostent, ptr %11, i32 0, i32 1
  %104 = load i32, ptr %103, align 4
  %105 = icmp eq i32 %102, %104
  br i1 %105, label %106, label %107

106:                                              ; preds = %99
  store i1 true, ptr %3, align 1
  store i32 1, ptr %12, align 4
  br label %109

107:                                              ; preds = %99
  store i1 false, ptr %3, align 1
  store i32 1, ptr %12, align 4
  br label %109

108:                                              ; preds = %2
  store i1 true, ptr %3, align 1
  store i32 1, ptr %12, align 4
  br label %109

109:                                              ; preds = %108, %107, %106, %96, %33, %26
  call void @llvm.lifetime.end.p0(i64 16, ptr %11) #16
  call void @llvm.lifetime.end.p0(i64 128, ptr %10) #16
  call void @llvm.lifetime.end.p0(i64 128, ptr %9) #16
  call void @llvm.lifetime.end.p0(i64 4, ptr %8) #16
  call void @llvm.lifetime.end.p0(i64 8, ptr %7) #16
  call void @llvm.lifetime.end.p0(i64 16, ptr %6) #16
  %110 = load i1, ptr %3, align 1
  ret i1 %110
}