; Function Attrs: null_pointer_is_valid sspstrong uwtable
define zeroext i1 @get_host_ipaddr(ptr noundef %0, ptr noundef %1) local_unnamed_addr #3 {
  %3 = alloca %struct.timeval, align 8
  %4 = alloca %struct.fd_set, align 8
  %5 = alloca %struct.fd_set, align 8
  %6 = alloca %struct._async_hostent, align 8
  call void @llvm.lifetime.start.p0(i64 16, ptr nonnull %3) #24
  call void @llvm.memcpy.p0.p0.i64(ptr noundef nonnull align 8 dereferenceable(16) %3, ptr noundef nonnull align 8 dereferenceable(16) @__const.get_host_ipaddr6.tv, i64 16, i1 false)
  call void @llvm.lifetime.start.p0(i64 128, ptr nonnull %4) #24
  call void @llvm.lifetime.start.p0(i64 128, ptr nonnull %5) #24
  call void @llvm.lifetime.start.p0(i64 16, ptr nonnull %6) #24
  %7 = tail call zeroext i1 @ws_inet_pton4(ptr noundef %0, ptr noundef %1)
  br i1 %7, label %42, label %8

8:                                                ; preds = %2
  %9 = load i8, ptr getelementptr inbounds nuw (i8, ptr @gbl_resolv_flags, i64 1), align 1, !range !16, !noundef !17
  %10 = trunc nuw i8 %9 to i1
  br i1 %10, label %11, label %42

11:                                               ; preds = %8
  %12 = load i8, ptr getelementptr inbounds nuw (i8, ptr @gbl_resolv_flags, i64 5), align 1, !range !16, !noundef !17
  %13 = trunc nuw i8 %12 to i1
  br i1 %13, label %14, label %42

14:                                               ; preds = %11
  %.b22 = load i1, ptr @async_dns_initialized, align 1
  %15 = load i32, ptr @name_resolve_concurrency, align 4
  %16 = icmp ne i32 %15, 0
  %or.cond.not = select i1 %.b22, i1 %16, i1 false
  br i1 %or.cond.not, label %.preheader.preheader, label %42

.preheader.preheader:                             ; preds = %14
  store i32 4, ptr %6, align 8
  %17 = getelementptr inbounds nuw i8, ptr %6, i64 4
  store i32 0, ptr %17, align 4
  %18 = getelementptr inbounds nuw i8, ptr %6, i64 8
  store ptr %1, ptr %18, align 8
  %19 = load ptr, ptr @ghbn_chan, align 8
  call void @ares_gethostbyname(ptr noundef %19, ptr noundef %0, i32 noundef 2, ptr noundef nonnull @c_ares_ghi_cb, ptr noundef nonnull %6)
  call void @llvm.memset.p0.i64(ptr noundef nonnull align 8 dereferenceable(128) %4, i8 0, i64 128, i1 false)
  call void @llvm.memset.p0.i64(ptr noundef nonnull align 8 dereferenceable(128) %5, i8 0, i64 128, i1 false)
  %20 = load ptr, ptr @ghbn_chan, align 8
  %21 = call i32 @ares_fds(ptr noundef %20, ptr noundef nonnull %4, ptr noundef nonnull %5)
  %22 = icmp sgt i32 %21, 0
  br i1 %22, label %23, label %37

23:                                               ; preds = %.preheader.preheader
  %24 = load ptr, ptr @ghbn_chan, align 8
  %25 = call ptr @ares_timeout(ptr noundef %24, ptr noundef nonnull %3, ptr noundef nonnull %3)
  %26 = call i32 @select(i32 noundef %21, ptr noundef nonnull %4, ptr noundef nonnull %5, ptr noundef null, ptr noundef %25)
  %27 = icmp eq i32 %26, -1
  br i1 %27, label %28, label %35

28:                                               ; preds = %23
  %29 = tail call ptr @__errno_location() #25
  %30 = load i32, ptr %29, align 4
  %.not = icmp eq i32 %30, 4
  br i1 %.not, label %42, label %31

31:                                               ; preds = %28
  %32 = load ptr, ptr @stderr, align 8
  %33 = call ptr @g_strerror(i32 noundef %30) #25
  %34 = call i32 (ptr, i32, ptr, ...) @__fprintf_chk(ptr noundef %32, i32 noundef 2, ptr noundef nonnull @.str.53, ptr noundef %33)
  br label %42

35:                                               ; preds = %23
  %36 = load ptr, ptr @ghbn_chan, align 8
  call void @ares_process(ptr noundef %36, ptr noundef nonnull %4, ptr noundef nonnull %5)
  br label %37

37:                                               ; preds = %35, %.preheader.preheader
  %38 = load ptr, ptr @ghbn_chan, align 8
  call void @ares_cancel(ptr noundef %38)
  %39 = load i32, ptr %6, align 8
  %40 = load i32, ptr %17, align 4
  %41 = icmp eq i32 %39, %40
  br label %42

42:                                               ; preds = %2, %37, %28, %31, %14, %8, %11
  %.0 = phi i1 [ false, %11 ], [ false, %8 ], [ false, %14 ], [ false, %31 ], [ false, %28 ], [ %41, %37 ], [ true, %2 ]
  call void @llvm.lifetime.end.p0(i64 16, ptr nonnull %6) #24
  call void @llvm.lifetime.end.p0(i64 128, ptr nonnull %5) #24
  call void @llvm.lifetime.end.p0(i64 128, ptr nonnull %4) #24
  call void @llvm.lifetime.end.p0(i64 16, ptr nonnull %3) #24
  ret i1 %.0
}